target datalayout = "e-m:e-p270:32:32-p271:32:32-p272:64:64-i64:64-i128:128-f80:128-n8:16:32:64-S128"
target triple = "x86_64-pc-linux-gnu"

%struct._fvalue_t = type { ptr, %union.anon.1 }
%union.anon.1 = type { %struct._protocol_value_t }
%struct._protocol_value_t = type { ptr, i32, ptr, i8 }

; Function Attrs: nounwind null_pointer_is_valid sspstrong uwtable
define internal i32 @sfloat_ieee_11073_val_to_double(ptr noundef %0, ptr noundef %1) #1 {
  %3 = alloca i32, align 4
  %4 = alloca ptr, align 8
  %5 = alloca ptr, align 8
  %6 = alloca i8, align 1
  %7 = alloca i16, align 2
  %8 = alloca i16, align 2
  %9 = alloca i32, align 4
  store ptr %0, ptr %4, align 8
  store ptr %1, ptr %5, align 8
  call void @llvm.lifetime.start.p0(i64 1, ptr %6) #7
  call void @llvm.lifetime.start.p0(i64 2, ptr %7) #7
  call void @llvm.lifetime.start.p0(i64 2, ptr %8) #7
  %10 = load ptr, ptr %4, align 8
  %11 = getelementptr inbounds nuw %struct._fvalue_t, ptr %10, i32 0, i32 1
  %12 = load i16, ptr %11, align 8
  %13 = zext i16 %12 to i32
  switch i32 %13, label %20 [
    i32 2046, label %14
    i32 2047, label %16
    i32 2048, label %16
    i32 2049, label %16
    i32 2050, label %18
  ]

14:                                               ; preds = %2
  %15 = load ptr, ptr %5, align 8
  store double 0x7FF0000000000000, ptr %15, align 8
  store i32 0, ptr %3, align 4
  store i32 1, ptr %9, align 4
  br label %73

16:                                               ; preds = %2, %2, %2
  %17 = load ptr, ptr %5, align 8
  store double 0x7FF8000000000000, ptr %17, align 8
  store i32 0, ptr %3, align 4
  store i32 1, ptr %9, align 4
  br label %73

18:                                               ; preds = %2
  %19 = load ptr, ptr %5, align 8
  store double 0xFFF0000000000000, ptr %19, align 8
  store i32 0, ptr %3, align 4
  store i32 1, ptr %9, align 4
  br label %73

20:                                               ; preds = %2
  br label %21

21:                                               ; preds = %20
  %22 = load ptr, ptr %4, align 8
  %23 = getelementptr inbounds nuw %struct._fvalue_t, ptr %22, i32 0, i32 1
  %24 = load i16, ptr %23, align 8
  %25 = zext i16 %24 to i32
  %26 = and i32 %25, 2047
  %27 = trunc i32 %26 to i16
  store i16 %27, ptr %7, align 2
  %28 = load i16, ptr %7, align 2
  %29 = zext i16 %28 to i32
  %30 = icmp eq i32 %29, 0
  br i1 %30, label %31, label %33

31:                                               ; preds = %21
  %32 = load ptr, ptr %5, align 8
  store double 0.000000e+00, ptr %32, align 8
  store i32 0, ptr %3, align 4
  store i32 1, ptr %9, align 4
  br label %73

33:                                               ; preds = %21
  %34 = load ptr, ptr %4, align 8
  %35 = getelementptr inbounds nuw %struct._fvalue_t, ptr %34, i32 0, i32 1
  %36 = load i16, ptr %35, align 8
  %37 = zext i16 %36 to i32
  %38 = and i32 %37, 2048
  %39 = trunc i32 %38 to i16
  store i16 %39, ptr %8, align 2
  %40 = load i16, ptr %8, align 2
  %41 = icmp ne i16 %40, 0
  br i1 %41, label %42, label %48

42:                                               ; preds = %33
  %43 = load i16, ptr %7, align 2
  %44 = sext i16 %43 to i32
  %45 = or i32 %44, 63488
  %46 = sub i32 0, %45
  %47 = trunc i32 %46 to i16
  store i16 %47, ptr %7, align 2
  br label %48

48:                                               ; preds = %42, %33
  %49 = load ptr, ptr %4, align 8
  %50 = getelementptr inbounds nuw %struct._fvalue_t, ptr %49, i32 0, i32 1
  %51 = load i16, ptr %50, align 8
  %52 = zext i16 %51 to i32
  %53 = ashr i32 %52, 12
  %54 = trunc i32 %53 to i8
  store i8 %54, ptr %6, align 1
  %55 = load i8, ptr %6, align 1
  %56 = sext i8 %55 to i32
  %57 = and i32 %56, 8
  %58 = icmp ne i32 %57, 0
  br i1 %58, label %59, label %64

59:                                               ; preds = %48
  %60 = load i8, ptr %6, align 1
  %61 = sext i8 %60 to i32
  %62 = or i32 %61, 240
  %63 = trunc i32 %62 to i8
  store i8 %63, ptr %6, align 1
  br label %64

64:                                               ; preds = %59, %48
  %65 = load i16, ptr %7, align 2
  %66 = zext i16 %65 to i32
  %67 = sitofp i32 %66 to double
  %68 = load i8, ptr %6, align 1
  %69 = sitofp i8 %68 to double
  %70 = call double @pow(double noundef 1.000000e+01, double noundef %69) #7
  %71 = fmul double %67, %70
  %72 = load ptr, ptr %5, align 8
  store double %71, ptr %72, align 8
  store i32 0, ptr %3, align 4
  store i32 1, ptr %9, align 4
  br label %73

73:                                               ; preds = %64, %31, %18, %16, %14
  call void @llvm.lifetime.end.p0(i64 2, ptr %8) #7
  call void @llvm.lifetime.end.p0(i64 2, ptr %7) #7
  call void @llvm.lifetime.end.p0(i64 1, ptr %6) #7
  %74 = load i32, ptr %3, align 4
  ret i32 %74
}