; Function Attrs: mustprogress nofree nounwind null_pointer_is_valid sspstrong willreturn memory(write, argmem: readwrite) uwtable
define internal noundef i32 @sfloat_ieee_11073_val_to_double(ptr noundef readonly captures(none) %0, ptr noundef writeonly captures(none) initializes((0, 8)) %1) #2 {
  %3 = getelementptr inbounds nuw i8, ptr %0, i64 8
  %4 = load i16, ptr %3, align 8
  %switch.tableidx = add i16 %4, -2046
  %5 = icmp ult i16 %switch.tableidx, 5
  br i1 %5, label %switch.lookup, label %6

6:                                                ; preds = %2
  %7 = and i16 %4, 2047
  %8 = icmp eq i16 %7, 0
  br i1 %8, label %21, label %9

9:                                                ; preds = %6
  %10 = and i16 %4, 2048
  %.not = icmp eq i16 %10, 0
  %11 = or i16 %4, -2048
  %12 = sub nsw i16 0, %11
  %.016 = select i1 %.not, i16 %7, i16 %12
  %13 = lshr i16 %4, 12
  %14 = trunc nuw nsw i16 %13 to i8
  %15 = or disjoint i8 %14, -16
  %.not1819 = icmp slt i16 %4, 0
  %.017 = select i1 %.not1819, i8 %15, i8 %14
  %16 = uitofp nneg i16 %.016 to double
  %17 = sitofp i8 %.017 to double
  %18 = tail call double @pow(double noundef 1.000000e+01, double noundef %17) #11
  %19 = fmul double %18, %16
  br label %21

switch.lookup:                                    ; preds = %2
  %20 = zext nneg i16 %switch.tableidx to i64
  %switch.gep = getelementptr inbounds nuw [5 x double], ptr @switch.table.float_ieee_11073_val_to_double, i64 0, i64 %20
  %switch.load = load double, ptr %switch.gep, align 8
  br label %21

21:                                               ; preds = %switch.lookup, %6, %9
  %.sink = phi double [ %19, %9 ], [ 0.000000e+00, %6 ], [ %switch.load, %switch.lookup ]
  store double %.sink, ptr %1, align 8
  ret i32 0
}